; Function Attrs: mustprogress nounwind uwtable
define hidden void @_ZN16BCEscapeAnalyzer17copy_dependenciesEP12Dependencies(ptr nocapture noundef nonnull readonly align 8 dereferenceable(196) %0, ptr noundef %1) local_unnamed_addr #0 align 2 {
  %3 = tail call align 8 ptr @llvm.threadlocal.address.p0(ptr align 8 @_ZN6Thread12_thr_currentE)
  %4 = load ptr, ptr %3, align 8
  %5 = getelementptr inbounds i8, ptr %4, i64 1808
  %6 = load ptr, ptr %5, align 8
  %7 = getelementptr inbounds i8, ptr %6, i64 160
  %8 = load i8, ptr %7, align 8
  %9 = trunc i8 %8 to i1
  br i1 %9, label %10, label %13

10:                                               ; preds = %2
  %11 = getelementptr inbounds i8, ptr %0, i64 16
  %12 = load ptr, ptr %11, align 8
  tail call void @_ZN12Dependencies18assert_evol_methodEP8ciMethod(ptr noundef nonnull align 8 dereferenceable(192) %1, ptr noundef %12) #12
  br label %13

13:                                               ; preds = %10, %2
  %14 = getelementptr inbounds i8, ptr %0, i64 152
  %15 = load i32, ptr %14, align 8
  %16 = icmp sgt i32 %15, 0
  br i1 %16, label %.lr.ph, label %._crit_edge

.lr.ph:                                           ; preds = %13
  %17 = getelementptr inbounds i8, ptr %0, i64 160
  br label %18

18:                                               ; preds = %.lr.ph, %18
  %indvars.iv = phi i64 [ 0, %.lr.ph ], [ %indvars.iv.next, %18 ]
  %19 = load ptr, ptr %17, align 8
  %20 = getelementptr inbounds ptr, ptr %19, i64 %indvars.iv
  %21 = load ptr, ptr %20, align 8
  %22 = or disjoint i64 %indvars.iv, 1
  %23 = getelementptr inbounds ptr, ptr %19, i64 %22
  %24 = load ptr, ptr %23, align 8
  %25 = or disjoint i64 %indvars.iv, 2
  %26 = getelementptr inbounds ptr, ptr %19, i64 %25
  %27 = load ptr, ptr %26, align 8
  %28 = or disjoint i64 %indvars.iv, 3
  %29 = getelementptr inbounds ptr, ptr %19, i64 %28
  %30 = load ptr, ptr %29, align 8
  tail call void @_ZN12Dependencies29assert_unique_concrete_methodEP7ciKlassP8ciMethodS1_S3_(ptr noundef nonnull align 8 dereferenceable(192) %1, ptr noundef %21, ptr noundef %24, ptr noundef %27, ptr noundef %30) #12
  %indvars.iv.next = add nuw nsw i64 %indvars.iv, 4
  %31 = load i32, ptr %14, align 8
  %32 = trunc nuw i64 %indvars.iv.next to i32
  %33 = icmp sgt i32 %31, %32
  br i1 %33, label %18, label %._crit_edge, !llvm.loop !48

._crit_edge:                                      ; preds = %18, %13
  ret void
}